target datalayout = "e-m:e-p270:32:32-p271:32:32-p272:64:64-i64:64-i128:128-f80:128-n8:16:32:64-S128"
target triple = "x86_64-pc-linux-gnu"

@CheckJNICalls = external global i8, align 1

; Function Attrs: mustprogress nounwind uwtable
define hidden noundef ptr @_Z13jni_functionsv() #1 {
  %1 = alloca ptr, align 8
  %2 = load i8, ptr @CheckJNICalls, align 1
  %3 = trunc i8 %2 to i1
  br i1 %3, label %4, label %6

4:                                                ; preds = %0
  %5 = call noundef ptr @_Z19jni_functions_checkv()
  store ptr %5, ptr %1, align 8
  br label %7

6:                                                ; preds = %0
  store ptr @jni_NativeInterface, ptr %1, align 8
  br label %7

7:                                                ; preds = %6, %4
  %8 = load ptr, ptr %1, align 8
  ret ptr %8
}