; Function Attrs: mustprogress nounwind uwtable
define hidden noundef ptr @_Z13jni_functionsv() local_unnamed_addr #0 {
  %1 = load i8, ptr @CheckJNICalls, align 1
  %2 = trunc i8 %1 to i1
  br i1 %2, label %3, label %5

3:                                                ; preds = %0
  %4 = tail call noundef ptr @_Z19jni_functions_checkv() #14
  br label %5

5:                                                ; preds = %0, %3
  %.0 = phi ptr [ %4, %3 ], [ @jni_NativeInterface, %0 ]
  ret ptr %.0
}